target datalayout = "e-m:e-p270:32:32-p271:32:32-p272:64:64-i64:64-i128:128-f80:128-n8:16:32:64-S128"
target triple = "x86_64-pc-linux-gnu"

%struct.optstruct = type { ptr, ptr, ptr, i64, i32, i32, i32, i32, ptr, ptr, ptr }

@.str.34 = private unnamed_addr constant [8 x i8] c"compare\00", align 1
@.str.498 = private unnamed_addr constant [44 x i8] c"makediff: --compare requires two arguments\0A\00", align 1
@stdout = external global ptr, align 8

; Function Attrs: nounwind uwtable
define internal i32 @compareone(ptr noundef %0) #0 {
  %2 = alloca i32, align 4
  %3 = alloca ptr, align 8
  store ptr %0, ptr %3, align 8
  %4 = load ptr, ptr %3, align 8
  %5 = getelementptr inbounds %struct.optstruct, ptr %4, i32 0, i32 10
  %6 = load ptr, ptr %5, align 8
  %7 = icmp ne ptr %6, null
  br i1 %7, label %9, label %8

8:                                                ; preds = %1
  call void (i32, ptr, ...) @mprintf(i32 noundef 5, ptr noundef @.str.498)
  store i32 -1, ptr %2, align 4
  br label %21

9:                                                ; preds = %1
  %10 = load ptr, ptr %3, align 8
  %11 = call ptr @optget(ptr noundef %10, ptr noundef @.str.34)
  %12 = getelementptr inbounds %struct.optstruct, ptr %11, i32 0, i32 2
  %13 = load ptr, ptr %12, align 8
  %14 = load ptr, ptr %3, align 8
  %15 = getelementptr inbounds %struct.optstruct, ptr %14, i32 0, i32 10
  %16 = load ptr, ptr %15, align 8
  %17 = getelementptr inbounds ptr, ptr %16, i64 0
  %18 = load ptr, ptr %17, align 8
  %19 = load ptr, ptr @stdout, align 8
  %20 = call i32 @compare(ptr noundef %13, ptr noundef %18, ptr noundef %19)
  store i32 %20, ptr %2, align 4
  br label %21

21:                                               ; preds = %9, %8
  %22 = load i32, ptr %2, align 4
  ret i32 %22
}