; Function Attrs: nounwind uwtable
define internal fastcc noundef i32 @compareone(ptr noundef %0) unnamed_addr #0 {
  %2 = getelementptr inbounds i8, ptr %0, i64 64
  %3 = load ptr, ptr %2, align 8
  %.not = icmp eq ptr %3, null
  br i1 %.not, label %4, label %5

4:                                                ; preds = %1
  tail call void (i32, ptr, ...) @mprintf(i32 noundef 5, ptr noundef nonnull @.str.498) #25
  br label %13

5:                                                ; preds = %1
  %6 = tail call ptr @optget(ptr noundef nonnull %0, ptr noundef nonnull @.str.34) #25
  %7 = getelementptr inbounds i8, ptr %6, i64 16
  %8 = load ptr, ptr %7, align 8
  %9 = load ptr, ptr %2, align 8
  %10 = load ptr, ptr %9, align 8
  %11 = load ptr, ptr @stdout, align 8
  %12 = tail call fastcc i32 @compare(ptr noundef %8, ptr noundef %10, ptr noundef %11), !range !5
  br label %13

13:                                               ; preds = %5, %4
  %.0 = phi i32 [ %12, %5 ], [ -1, %4 ]
  ret i32 %.0
}